target datalayout = "e-m:e-p270:32:32-p271:32:32-p272:64:64-i64:64-i128:128-f80:128-n8:16:32:64-S128"
target triple = "x86_64-pc-linux-gnu"

%struct.expert_field = type { i32, i32 }
%struct._Kind = type { ptr, i32, i32 }

@ei_reload_truncated_field = internal global %struct.expert_field zeroinitializer, align 4
@hf_reload_length_uint16 = internal global i32 0, align 4
@.str.17 = private unnamed_addr constant [14 x i8] c": %d elements\00", align 1
@.str.42 = private unnamed_addr constant [6 x i8] c" (%s)\00", align 1
@hf_reload_kinddata_kind = internal global i32 0, align 4
@hf_reload_kindid = internal global i32 0, align 4
@hf_reload_generation_counter = internal global i32 0, align 4
@hf_reload_storeans = internal global i32 0, align 4
@hf_reload_storeans_kind_responses = internal global i32 0, align 4
@hf_reload_storekindresponse = internal global i32 0, align 4
@hf_reload_replicas = internal global i32 0, align 4
@ett_reload_storeans = internal global i32 0, align 4
@ett_reload_storeans_kind_responses = internal global i32 0, align 4
@ett_reload_storekindresponse = internal global i32 0, align 4
@kindidlist_uats = internal global ptr null, align 8
@nreloadkinds = internal global i32 0, align 4
@.str.708 = private unnamed_addr constant [25 x i8] c" (StoreKindResponse<%d>)\00", align 1
@.str.709 = private unnamed_addr constant [28 x i8] c"Truncated StoreKindResponse\00", align 1

; Function Attrs: nounwind null_pointer_is_valid sspstrong uwtable
define internal ptr @getKindFromId(i32 noundef %0) #4 {
  %2 = alloca ptr, align 8
  %3 = alloca i32, align 4
  %4 = alloca i32, align 4
  %5 = alloca i32, align 4
  store i32 %0, ptr %3, align 4
  call void @llvm.lifetime.start.p0(i64 4, ptr %4) #8
  store i32 0, ptr %4, align 4
  br label %6

6:                                                ; preds = %25, %1
  %7 = load i32, ptr %4, align 4
  %8 = load i32, ptr @nreloadkinds, align 4
  %9 = icmp ult i32 %7, %8
  br i1 %9, label %10, label %28

10:                                               ; preds = %6
  %11 = load i32, ptr %3, align 4
  %12 = load ptr, ptr @kindidlist_uats, align 8
  %13 = load i32, ptr %4, align 4
  %14 = zext i32 %13 to i64
  %15 = getelementptr %struct._Kind, ptr %12, i64 %14
  %16 = getelementptr inbounds nuw %struct._Kind, ptr %15, i32 0, i32 1
  %17 = load i32, ptr %16, align 8
  %18 = icmp eq i32 %11, %17
  br i1 %18, label %19, label %24

19:                                               ; preds = %10
  %20 = load ptr, ptr @kindidlist_uats, align 8
  %21 = load i32, ptr %4, align 4
  %22 = zext i32 %21 to i64
  %23 = getelementptr %struct._Kind, ptr %20, i64 %22
  store ptr %23, ptr %2, align 8
  store i32 1, ptr %5, align 4
  br label %50

24:                                               ; preds = %10
  br label %25

25:                                               ; preds = %24
  %26 = load i32, ptr %4, align 4
  %27 = add i32 %26, 1
  store i32 %27, ptr %4, align 4
  br label %6, !llvm.loop !30

28:                                               ; preds = %6
  store i32 0, ptr %4, align 4
  br label %29

29:                                               ; preds = %46, %28
  %30 = load i32, ptr %4, align 4
  %31 = zext i32 %30 to i64
  %32 = icmp ult i64 %31, 18
  br i1 %32, label %33, label %49

33:                                               ; preds = %29
  %34 = load i32, ptr %3, align 4
  %35 = load i32, ptr %4, align 4
  %36 = zext i32 %35 to i64
  %37 = getelementptr [18 x %struct._Kind], ptr @predefined_kinds, i64 0, i64 %36
  %38 = getelementptr inbounds nuw %struct._Kind, ptr %37, i32 0, i32 1
  %39 = load i32, ptr %38, align 8
  %40 = icmp eq i32 %34, %39
  br i1 %40, label %41, label %45

41:                                               ; preds = %33
  %42 = load i32, ptr %4, align 4
  %43 = zext i32 %42 to i64
  %44 = getelementptr %struct._Kind, ptr @predefined_kinds, i64 %43
  store ptr %44, ptr %2, align 8
  store i32 1, ptr %5, align 4
  br label %50

45:                                               ; preds = %33
  br label %46

46:                                               ; preds = %45
  %47 = load i32, ptr %4, align 4
  %48 = add i32 %47, 1
  store i32 %48, ptr %4, align 4
  br label %29, !llvm.loop !31

49:                                               ; preds = %29
  store ptr null, ptr %2, align 8
  store i32 1, ptr %5, align 4
  br label %50

50:                                               ; preds = %49, %41, %19
  call void @llvm.lifetime.end.p0(i64 4, ptr %4) #8
  %51 = load ptr, ptr %2, align 8
  ret ptr %51
}

; Function Attrs: null_pointer_is_valid sspstrong uwtable
define internal i32 @dissect_kindid(i32 noundef %0, ptr noundef %1, ptr noundef %2, i16 noundef zeroext %3, ptr noundef %4) #0 {
  %6 = alloca i32, align 4
  %7 = alloca ptr, align 8
  %8 = alloca ptr, align 8
  %9 = alloca i16, align 2
  %10 = alloca ptr, align 8
  %11 = alloca ptr, align 8
  %12 = alloca i32, align 4
  %13 = alloca i32, align 4
  store i32 %0, ptr %6, align 4
  store ptr %1, ptr %7, align 8
  store ptr %2, ptr %8, align 8
  store i16 %3, ptr %9, align 2
  store ptr %4, ptr %10, align 8
  call void @llvm.lifetime.start.p0(i64 8, ptr %11) #8
  call void @llvm.lifetime.start.p0(i64 4, ptr %12) #8
  store i32 0, ptr %12, align 4
  call void @llvm.lifetime.start.p0(i64 4, ptr %13) #8
  %14 = load i32, ptr @hf_reload_kindid, align 4
  store i32 %14, ptr %13, align 4
  %15 = load i32, ptr %6, align 4
  %16 = icmp sge i32 %15, 0
  br i1 %16, label %17, label %19

17:                                               ; preds = %5
  %18 = load i32, ptr %6, align 4
  store i32 %18, ptr %13, align 4
  br label %19

19:                                               ; preds = %17, %5
  %20 = load ptr, ptr %10, align 8
  store ptr null, ptr %20, align 8
  %21 = load ptr, ptr %7, align 8
  %22 = load i16, ptr %9, align 2
  %23 = zext i16 %22 to i32
  %24 = call i32 @tvb_get_ntohl(ptr noundef %21, i32 noundef %23)
  store i32 %24, ptr %12, align 4
  %25 = load i32, ptr %12, align 4
  %26 = call ptr @getKindFromId(i32 noundef %25)
  %27 = load ptr, ptr %10, align 8
  store ptr %26, ptr %27, align 8
  %28 = load ptr, ptr %8, align 8
  %29 = load i32, ptr %13, align 4
  %30 = load ptr, ptr %7, align 8
  %31 = load i16, ptr %9, align 2
  %32 = zext i16 %31 to i32
  %33 = call ptr @proto_tree_add_item(ptr noundef %28, i32 noundef %29, ptr noundef %30, i32 noundef %32, i32 noundef 4, i32 noundef 0)
  store ptr %33, ptr %11, align 8
  %34 = load ptr, ptr %10, align 8
  %35 = load ptr, ptr %34, align 8
  %36 = icmp ne ptr null, %35
  br i1 %36, label %37, label %49

37:                                               ; preds = %19
  %38 = load ptr, ptr %10, align 8
  %39 = load ptr, ptr %38, align 8
  %40 = getelementptr inbounds nuw %struct._Kind, ptr %39, i32 0, i32 0
  %41 = load ptr, ptr %40, align 8
  %42 = icmp ne ptr %41, null
  br i1 %42, label %43, label %49

43:                                               ; preds = %37
  %44 = load ptr, ptr %11, align 8
  %45 = load ptr, ptr %10, align 8
  %46 = load ptr, ptr %45, align 8
  %47 = getelementptr inbounds nuw %struct._Kind, ptr %46, i32 0, i32 0
  %48 = load ptr, ptr %47, align 8
  call void (ptr, ptr, ...) @proto_item_append_text(ptr noundef %44, ptr noundef @.str.42, ptr noundef %48)
  br label %49

49:                                               ; preds = %43, %37, %19
  call void @llvm.lifetime.end.p0(i64 4, ptr %13) #8
  call void @llvm.lifetime.end.p0(i64 4, ptr %12) #8
  call void @llvm.lifetime.end.p0(i64 8, ptr %11) #8
  ret i32 4
}

; Function Attrs: null_pointer_is_valid sspstrong uwtable
define internal i32 @dissect_storekindresponse(ptr noundef %0, ptr noundef %1, ptr noundef %2, i16 noundef zeroext %3, i16 noundef zeroext %4) #0 {
  %6 = alloca i32, align 4
  %7 = alloca ptr, align 8
  %8 = alloca ptr, align 8
  %9 = alloca ptr, align 8
  %10 = alloca i16, align 2
  %11 = alloca i16, align 2
  %12 = alloca ptr, align 8
  %13 = alloca ptr, align 8
  %14 = alloca i16, align 2
  %15 = alloca i16, align 2
  %16 = alloca i16, align 2
  %17 = alloca ptr, align 8
  %18 = alloca i32, align 4
  store ptr %0, ptr %7, align 8
  store ptr %1, ptr %8, align 8
  store ptr %2, ptr %9, align 8
  store i16 %3, ptr %10, align 2
  store i16 %4, ptr %11, align 2
  call void @llvm.lifetime.start.p0(i64 8, ptr %12) #8
  call void @llvm.lifetime.start.p0(i64 8, ptr %13) #8
  call void @llvm.lifetime.start.p0(i64 2, ptr %14) #8
  store i16 0, ptr %14, align 2
  call void @llvm.lifetime.start.p0(i64 2, ptr %15) #8
  store i16 0, ptr %15, align 2
  call void @llvm.lifetime.start.p0(i64 2, ptr %16) #8
  call void @llvm.lifetime.start.p0(i64 8, ptr %17) #8
  %19 = load ptr, ptr %7, align 8
  %20 = load i16, ptr %10, align 2
  %21 = zext i16 %20 to i32
  %22 = add i32 %21, 4
  %23 = add i32 %22, 8
  %24 = call zeroext i16 @tvb_get_ntohs(ptr noundef %19, i32 noundef %23)
  store i16 %24, ptr %16, align 2
  %25 = load i16, ptr %16, align 2
  %26 = zext i16 %25 to i32
  %27 = add i32 14, %26
  %28 = trunc i32 %27 to i16
  store i16 %28, ptr %15, align 2
  %29 = load i16, ptr %11, align 2
  %30 = zext i16 %29 to i32
  %31 = load i16, ptr %15, align 2
  %32 = zext i16 %31 to i32
  %33 = icmp slt i32 %30, %32
  br i1 %33, label %34, label %48

34:                                               ; preds = %5
  %35 = load ptr, ptr %9, align 8
  %36 = load i32, ptr @hf_reload_storekindresponse, align 4
  %37 = load ptr, ptr %7, align 8
  %38 = load i16, ptr %10, align 2
  %39 = zext i16 %38 to i32
  %40 = load i16, ptr %11, align 2
  %41 = zext i16 %40 to i32
  %42 = call ptr @proto_tree_add_item(ptr noundef %35, i32 noundef %36, ptr noundef %37, i32 noundef %39, i32 noundef %41, i32 noundef 0)
  store ptr %42, ptr %12, align 8
  %43 = load ptr, ptr %8, align 8
  %44 = load ptr, ptr %12, align 8
  %45 = call ptr (ptr, ptr, ptr, ptr, ...) @expert_add_info_format(ptr noundef %43, ptr noundef %44, ptr noundef @ei_reload_truncated_field, ptr noundef @.str.709)
  %46 = load i16, ptr %11, align 2
  %47 = zext i16 %46 to i32
  store i32 %47, ptr %6, align 4
  store i32 1, ptr %18, align 4
  br label %111

48:                                               ; preds = %5
  %49 = load ptr, ptr %9, align 8
  %50 = load i32, ptr @hf_reload_storekindresponse, align 4
  %51 = load ptr, ptr %7, align 8
  %52 = load i16, ptr %10, align 2
  %53 = zext i16 %52 to i32
  %54 = load i16, ptr %16, align 2
  %55 = zext i16 %54 to i32
  %56 = add i32 14, %55
  %57 = call ptr @proto_tree_add_item(ptr noundef %49, i32 noundef %50, ptr noundef %51, i32 noundef %53, i32 noundef %56, i32 noundef 0)
  store ptr %57, ptr %12, align 8
  %58 = load ptr, ptr %12, align 8
  %59 = load i32, ptr @ett_reload_storekindresponse, align 4
  %60 = call ptr @proto_item_add_subtree(ptr noundef %58, i32 noundef %59)
  store ptr %60, ptr %13, align 8
  %61 = load i32, ptr @hf_reload_kinddata_kind, align 4
  %62 = load ptr, ptr %7, align 8
  %63 = load ptr, ptr %13, align 8
  %64 = load i16, ptr %10, align 2
  %65 = zext i16 %64 to i32
  %66 = load i16, ptr %14, align 2
  %67 = zext i16 %66 to i32
  %68 = add i32 %65, %67
  %69 = trunc i32 %68 to i16
  %70 = call i32 @dissect_kindid(i32 noundef %61, ptr noundef %62, ptr noundef %63, i16 noundef zeroext %69, ptr noundef %17)
  %71 = load i16, ptr %14, align 2
  %72 = zext i16 %71 to i32
  %73 = add i32 %72, %70
  %74 = trunc i32 %73 to i16
  store i16 %74, ptr %14, align 2
  %75 = load ptr, ptr %13, align 8
  %76 = load i32, ptr @hf_reload_generation_counter, align 4
  %77 = load ptr, ptr %7, align 8
  %78 = load i16, ptr %10, align 2
  %79 = zext i16 %78 to i32
  %80 = load i16, ptr %14, align 2
  %81 = zext i16 %80 to i32
  %82 = add i32 %79, %81
  %83 = call ptr @proto_tree_add_item(ptr noundef %75, i32 noundef %76, ptr noundef %77, i32 noundef %82, i32 noundef 8, i32 noundef 0)
  %84 = load i16, ptr %14, align 2
  %85 = zext i16 %84 to i32
  %86 = add i32 %85, 8
  %87 = trunc i32 %86 to i16
  store i16 %87, ptr %14, align 2
  %88 = load ptr, ptr %7, align 8
  %89 = load ptr, ptr %8, align 8
  %90 = load ptr, ptr %13, align 8
  %91 = load i16, ptr %10, align 2
  %92 = zext i16 %91 to i32
  %93 = load i16, ptr %14, align 2
  %94 = zext i16 %93 to i32
  %95 = add i32 %92, %94
  %96 = trunc i32 %95 to i16
  %97 = load i16, ptr %15, align 2
  %98 = zext i16 %97 to i32
  %99 = load i16, ptr %14, align 2
  %100 = zext i16 %99 to i32
  %101 = sub i32 %98, %100
  %102 = trunc i32 %101 to i16
  %103 = load i32, ptr @hf_reload_replicas, align 4
  %104 = call i32 @dissect_nodeid_list(ptr noundef %88, ptr noundef %89, ptr noundef %90, i16 noundef zeroext %96, i16 noundef zeroext %102, i32 noundef %103)
  %105 = load i16, ptr %14, align 2
  %106 = zext i16 %105 to i32
  %107 = add i32 %106, %104
  %108 = trunc i32 %107 to i16
  store i16 %108, ptr %14, align 2
  %109 = load i16, ptr %14, align 2
  %110 = zext i16 %109 to i32
  store i32 %110, ptr %6, align 4
  store i32 1, ptr %18, align 4
  br label %111

111:                                              ; preds = %48, %34
  call void @llvm.lifetime.end.p0(i64 8, ptr %17) #8
  call void @llvm.lifetime.end.p0(i64 2, ptr %16) #8
  call void @llvm.lifetime.end.p0(i64 2, ptr %15) #8
  call void @llvm.lifetime.end.p0(i64 2, ptr %14) #8
  call void @llvm.lifetime.end.p0(i64 8, ptr %13) #8
  call void @llvm.lifetime.end.p0(i64 8, ptr %12) #8
  %112 = load i32, ptr %6, align 4
  ret i32 %112
}

; Function Attrs: null_pointer_is_valid sspstrong uwtable
define internal i32 @dissect_storeans(ptr noundef %0, ptr noundef %1, ptr noundef %2, i16 noundef zeroext %3, i16 noundef zeroext %4) #0 {
  %6 = alloca ptr, align 8
  %7 = alloca ptr, align 8
  %8 = alloca ptr, align 8
  %9 = alloca i16, align 2
  %10 = alloca i16, align 2
  %11 = alloca ptr, align 8
  %12 = alloca ptr, align 8
  %13 = alloca ptr, align 8
  %14 = alloca ptr, align 8
  %15 = alloca i16, align 2
  %16 = alloca i16, align 2
  %17 = alloca i32, align 4
  %18 = alloca i32, align 4
  %19 = alloca i32, align 4
  %20 = alloca i32, align 4
  store ptr %0, ptr %6, align 8
  store ptr %1, ptr %7, align 8
  store ptr %2, ptr %8, align 8
  store i16 %3, ptr %9, align 2
  store i16 %4, ptr %10, align 2
  call void @llvm.lifetime.start.p0(i64 8, ptr %11) #8
  call void @llvm.lifetime.start.p0(i64 8, ptr %12) #8
  call void @llvm.lifetime.start.p0(i64 8, ptr %13) #8
  call void @llvm.lifetime.start.p0(i64 8, ptr %14) #8
  call void @llvm.lifetime.start.p0(i64 2, ptr %15) #8
  store i16 0, ptr %15, align 2
  call void @llvm.lifetime.start.p0(i64 2, ptr %16) #8
  call void @llvm.lifetime.start.p0(i64 4, ptr %17) #8
  store i32 0, ptr %17, align 4
  call void @llvm.lifetime.start.p0(i64 4, ptr %18) #8
  store i32 0, ptr %18, align 4
  %21 = load ptr, ptr %8, align 8
  %22 = load i32, ptr @hf_reload_storeans, align 4
  %23 = load ptr, ptr %6, align 8
  %24 = load i16, ptr %9, align 2
  %25 = zext i16 %24 to i32
  %26 = load i16, ptr %10, align 2
  %27 = zext i16 %26 to i32
  %28 = call ptr @proto_tree_add_item(ptr noundef %21, i32 noundef %22, ptr noundef %23, i32 noundef %25, i32 noundef %27, i32 noundef 0)
  store ptr %28, ptr %11, align 8
  %29 = load ptr, ptr %11, align 8
  %30 = load i32, ptr @ett_reload_storeans, align 4
  %31 = call ptr @proto_item_add_subtree(ptr noundef %29, i32 noundef %30)
  store ptr %31, ptr %13, align 8
  %32 = load ptr, ptr %6, align 8
  %33 = load i16, ptr %9, align 2
  %34 = zext i16 %33 to i32
  %35 = call zeroext i16 @tvb_get_ntohs(ptr noundef %32, i32 noundef %34)
  store i16 %35, ptr %16, align 2
  %36 = load ptr, ptr %13, align 8
  %37 = load i32, ptr @hf_reload_storeans_kind_responses, align 4
  %38 = load ptr, ptr %6, align 8
  %39 = load i16, ptr %9, align 2
  %40 = zext i16 %39 to i32
  %41 = load i16, ptr %16, align 2
  %42 = zext i16 %41 to i32
  %43 = add i32 2, %42
  %44 = call ptr @proto_tree_add_item(ptr noundef %36, i32 noundef %37, ptr noundef %38, i32 noundef %40, i32 noundef %43, i32 noundef 0)
  store ptr %44, ptr %12, align 8
  %45 = load ptr, ptr %12, align 8
  %46 = load i32, ptr @ett_reload_storeans_kind_responses, align 4
  %47 = call ptr @proto_item_add_subtree(ptr noundef %45, i32 noundef %46)
  store ptr %47, ptr %14, align 8
  %48 = load ptr, ptr %12, align 8
  %49 = load i16, ptr %16, align 2
  %50 = zext i16 %49 to i32
  call void (ptr, ptr, ...) @proto_item_append_text(ptr noundef %48, ptr noundef @.str.708, i32 noundef %50)
  %51 = load ptr, ptr %14, align 8
  %52 = load i32, ptr @hf_reload_length_uint16, align 4
  %53 = load ptr, ptr %6, align 8
  %54 = load i16, ptr %9, align 2
  %55 = zext i16 %54 to i32
  %56 = call ptr @proto_tree_add_item(ptr noundef %51, i32 noundef %52, ptr noundef %53, i32 noundef %55, i32 noundef 2, i32 noundef 0)
  %57 = load i16, ptr %15, align 2
  %58 = zext i16 %57 to i32
  %59 = add i32 %58, 2
  %60 = trunc i32 %59 to i16
  store i16 %60, ptr %15, align 2
  br label %61

61:                                               ; preds = %100, %5
  %62 = load i32, ptr %17, align 4
  %63 = icmp sge i32 %62, 0
  br i1 %63, label %64, label %69

64:                                               ; preds = %61
  %65 = load i32, ptr %17, align 4
  %66 = load i16, ptr %16, align 2
  %67 = zext i16 %66 to i32
  %68 = icmp slt i32 %65, %67
  br label %69

69:                                               ; preds = %64, %61
  %70 = phi i1 [ false, %61 ], [ %68, %64 ]
  br i1 %70, label %71, label %101

71:                                               ; preds = %69
  call void @llvm.lifetime.start.p0(i64 4, ptr %19) #8
  %72 = load ptr, ptr %6, align 8
  %73 = load ptr, ptr %7, align 8
  %74 = load ptr, ptr %14, align 8
  %75 = load i16, ptr %9, align 2
  %76 = zext i16 %75 to i32
  %77 = load i16, ptr %15, align 2
  %78 = zext i16 %77 to i32
  %79 = add i32 %76, %78
  %80 = load i32, ptr %17, align 4
  %81 = add i32 %79, %80
  %82 = trunc i32 %81 to i16
  %83 = load i16, ptr %16, align 2
  %84 = zext i16 %83 to i32
  %85 = load i32, ptr %17, align 4
  %86 = sub i32 %84, %85
  %87 = trunc i32 %86 to i16
  %88 = call i32 @dissect_storekindresponse(ptr noundef %72, ptr noundef %73, ptr noundef %74, i16 noundef zeroext %82, i16 noundef zeroext %87)
  store i32 %88, ptr %19, align 4
  %89 = load i32, ptr %19, align 4
  %90 = icmp sle i32 %89, 0
  br i1 %90, label %91, label %92

91:                                               ; preds = %71
  store i32 3, ptr %20, align 4
  br label %98

92:                                               ; preds = %71
  %93 = load i32, ptr %19, align 4
  %94 = load i32, ptr %17, align 4
  %95 = add i32 %94, %93
  store i32 %95, ptr %17, align 4
  %96 = load i32, ptr %18, align 4
  %97 = add i32 %96, 1
  store i32 %97, ptr %18, align 4
  store i32 0, ptr %20, align 4
  br label %98

98:                                               ; preds = %92, %91
  call void @llvm.lifetime.end.p0(i64 4, ptr %19) #8
  %99 = load i32, ptr %20, align 4
  switch i32 %99, label %112 [
    i32 0, label %100
    i32 3, label %101
  ]

100:                                              ; preds = %98
  br label %61, !llvm.loop !14

101:                                              ; preds = %98, %69
  %102 = load i16, ptr %16, align 2
  %103 = zext i16 %102 to i32
  %104 = load i16, ptr %15, align 2
  %105 = zext i16 %104 to i32
  %106 = add i32 %105, %103
  %107 = trunc i32 %106 to i16
  store i16 %107, ptr %15, align 2
  %108 = load ptr, ptr %12, align 8
  %109 = load i32, ptr %18, align 4
  call void (ptr, ptr, ...) @proto_item_append_text(ptr noundef %108, ptr noundef @.str.17, i32 noundef %109)
  %110 = load i16, ptr %15, align 2
  %111 = zext i16 %110 to i32
  store i32 1, ptr %20, align 4
  call void @llvm.lifetime.end.p0(i64 4, ptr %18) #8
  call void @llvm.lifetime.end.p0(i64 4, ptr %17) #8
  call void @llvm.lifetime.end.p0(i64 2, ptr %16) #8
  call void @llvm.lifetime.end.p0(i64 2, ptr %15) #8
  call void @llvm.lifetime.end.p0(i64 8, ptr %14) #8
  call void @llvm.lifetime.end.p0(i64 8, ptr %13) #8
  call void @llvm.lifetime.end.p0(i64 8, ptr %12) #8
  call void @llvm.lifetime.end.p0(i64 8, ptr %11) #8
  ret i32 %111

112:                                              ; preds = %98
  unreachable
}