; Function Attrs: null_pointer_is_valid sspstrong uwtable
define internal fastcc void @dissect_storeans(ptr noundef %0, ptr noundef %1, ptr noundef %2, i16 noundef zeroext %3, i16 noundef zeroext %4) unnamed_addr #0 {
  %6 = load i32, ptr @hf_reload_storeans, align 4
  %7 = zext i16 %3 to i32
  %8 = zext i16 %4 to i32
  %9 = tail call ptr @proto_tree_add_item(ptr noundef %2, i32 noundef %6, ptr noundef %0, i32 noundef %7, i32 noundef %8, i32 noundef 0)
  %10 = load i32, ptr @ett_reload_storeans, align 4
  %11 = tail call ptr @proto_item_add_subtree(ptr noundef %9, i32 noundef %10)
  %12 = tail call zeroext i16 @tvb_get_ntohs(ptr noundef %0, i32 noundef %7)
  %13 = load i32, ptr @hf_reload_storeans_kind_responses, align 4
  %14 = zext i16 %12 to i32
  %15 = add nuw nsw i32 %14, 2
  %16 = tail call ptr @proto_tree_add_item(ptr noundef %11, i32 noundef %13, ptr noundef %0, i32 noundef %7, i32 noundef %15, i32 noundef 0)
  %17 = load i32, ptr @ett_reload_storeans_kind_responses, align 4
  %18 = tail call ptr @proto_item_add_subtree(ptr noundef %16, i32 noundef %17)
  tail call void (ptr, ptr, ...) @proto_item_append_text(ptr noundef %16, ptr noundef nonnull @.str.708, i32 noundef %14)
  %19 = load i32, ptr @hf_reload_length_uint16, align 4
  %20 = tail call ptr @proto_tree_add_item(ptr noundef %18, i32 noundef %19, ptr noundef %0, i32 noundef %7, i32 noundef 2, i32 noundef 0)
  %21 = add nuw nsw i32 %7, 2
  br label %22

22:                                               ; preds = %dissect_storekindresponse.exit, %5
  %.039 = phi i32 [ 0, %5 ], [ %78, %dissect_storekindresponse.exit ]
  %.038 = phi i32 [ 0, %5 ], [ %79, %dissect_storekindresponse.exit ]
  %23 = icmp ult i32 %.039, %14
  br i1 %23, label %24, label %80

24:                                               ; preds = %22
  %25 = add nuw nsw i32 %21, %.039
  %26 = trunc i32 %25 to i16
  %27 = trunc i32 %.039 to i16
  %28 = sub i16 %12, %27
  %29 = and i32 %25, 65535
  %30 = add nuw nsw i32 %29, 12
  %31 = tail call zeroext i16 @tvb_get_ntohs(ptr noundef %0, i32 noundef %30)
  %32 = zext i16 %31 to i32
  %33 = add nuw nsw i32 %32, 14
  %34 = zext i16 %28 to i32
  %35 = and i32 %33, 65535
  %36 = icmp samesign ugt i32 %35, %34
  %37 = load i32, ptr @hf_reload_storekindresponse, align 4
  br i1 %36, label %38, label %41

38:                                               ; preds = %24
  %39 = tail call ptr @proto_tree_add_item(ptr noundef %18, i32 noundef %37, ptr noundef %0, i32 noundef %29, i32 noundef %34, i32 noundef 0)
  %40 = tail call ptr (ptr, ptr, ptr, ptr, ...) @expert_add_info_format(ptr noundef %1, ptr noundef %39, ptr noundef nonnull @ei_reload_truncated_field, ptr noundef nonnull @.str.709)
  br label %dissect_storekindresponse.exit

41:                                               ; preds = %24
  %42 = tail call ptr @proto_tree_add_item(ptr noundef %18, i32 noundef %37, ptr noundef %0, i32 noundef %29, i32 noundef %33, i32 noundef 0)
  %43 = load i32, ptr @ett_reload_storekindresponse, align 4
  %44 = tail call ptr @proto_item_add_subtree(ptr noundef %42, i32 noundef %43)
  %45 = load i32, ptr @hf_reload_kinddata_kind, align 4
  %46 = load i32, ptr @hf_reload_kindid, align 4
  %47 = icmp slt i32 %45, 0
  %spec.select.i.i = select i1 %47, i32 %46, i32 %45
  %48 = tail call i32 @tvb_get_ntohl(ptr noundef %0, i32 noundef %29)
  %49 = load i32, ptr @nreloadkinds, align 4
  %.not.i.i.i = icmp eq i32 %49, 0
  br i1 %.not.i.i.i, label %.preheader.i.i.i.preheader, label %.lr.ph.i.i.i

.preheader.i.i.i.preheader:                       ; preds = %51, %41
  br label %.preheader.i.i.i

.lr.ph.i.i.i:                                     ; preds = %41
  %50 = load ptr, ptr @kindidlist_uats, align 8
  %wide.trip.count.i.i.i = zext i32 %49 to i64
  br label %52

51:                                               ; preds = %52
  %indvars.iv.next.i.i.i = add nuw nsw i64 %indvars.iv.i.i.i, 1
  %exitcond.not.i.i.i = icmp eq i64 %indvars.iv.next.i.i.i, %wide.trip.count.i.i.i
  br i1 %exitcond.not.i.i.i, label %.preheader.i.i.i.preheader, label %52, !llvm.loop !10

52:                                               ; preds = %51, %.lr.ph.i.i.i
  %indvars.iv.i.i.i = phi i64 [ 0, %.lr.ph.i.i.i ], [ %indvars.iv.next.i.i.i, %51 ]
  %53 = getelementptr %struct._Kind, ptr %50, i64 %indvars.iv.i.i.i
  %54 = getelementptr inbounds nuw i8, ptr %53, i64 8
  %55 = load i32, ptr %54, align 8
  %56 = icmp eq i32 %48, %55
  br i1 %56, label %getKindFromId.exit.i.i, label %51

57:                                               ; preds = %.preheader.i.i.i
  %indvars.iv.next22.i.i.i = add nuw nsw i64 %indvars.iv21.i.i.i, 1
  %exitcond24.not.i.i.i = icmp eq i64 %indvars.iv.next22.i.i.i, 18
  br i1 %exitcond24.not.i.i.i, label %getKindFromId.exit.i.thread.i, label %.preheader.i.i.i, !llvm.loop !11

getKindFromId.exit.i.thread.i:                    ; preds = %57
  %58 = tail call ptr @proto_tree_add_item(ptr noundef %44, i32 noundef %spec.select.i.i, ptr noundef %0, i32 noundef %29, i32 noundef 4, i32 noundef 0)
  br label %dissect_kindid.exit.i

.preheader.i.i.i:                                 ; preds = %.preheader.i.i.i.preheader, %57
  %indvars.iv21.i.i.i = phi i64 [ %indvars.iv.next22.i.i.i, %57 ], [ 0, %.preheader.i.i.i.preheader ]
  %59 = getelementptr [18 x %struct._Kind], ptr @predefined_kinds, i64 0, i64 %indvars.iv21.i.i.i, i32 1
  %60 = load i32, ptr %59, align 8
  %61 = icmp eq i32 %48, %60
  br i1 %61, label %62, label %57

62:                                               ; preds = %.preheader.i.i.i
  %63 = getelementptr %struct._Kind, ptr @predefined_kinds, i64 %indvars.iv21.i.i.i
  br label %getKindFromId.exit.i.i

getKindFromId.exit.i.i:                           ; preds = %52, %62
  %.010.i.i.i = phi ptr [ %63, %62 ], [ %53, %52 ]
  %64 = tail call ptr @proto_tree_add_item(ptr noundef %44, i32 noundef %spec.select.i.i, ptr noundef %0, i32 noundef %29, i32 noundef 4, i32 noundef 0)
  %.not.i.i = icmp eq ptr %.010.i.i.i, null
  br i1 %.not.i.i, label %dissect_kindid.exit.i, label %65

65:                                               ; preds = %getKindFromId.exit.i.i
  %66 = load ptr, ptr %.010.i.i.i, align 8
  %.not17.i.i = icmp eq ptr %66, null
  br i1 %.not17.i.i, label %dissect_kindid.exit.i, label %67

67:                                               ; preds = %65
  tail call void (ptr, ptr, ...) @proto_item_append_text(ptr noundef %64, ptr noundef nonnull @.str.42, ptr noundef nonnull %66)
  br label %dissect_kindid.exit.i

dissect_kindid.exit.i:                            ; preds = %67, %65, %getKindFromId.exit.i.i, %getKindFromId.exit.i.thread.i
  %68 = load i32, ptr @hf_reload_generation_counter, align 4
  %69 = add nuw nsw i32 %29, 4
  %70 = tail call ptr @proto_tree_add_item(ptr noundef %44, i32 noundef %68, ptr noundef %0, i32 noundef %69, i32 noundef 8, i32 noundef 0)
  %71 = add i16 %26, 12
  %72 = add i16 %31, 2
  %73 = load i32, ptr @hf_reload_replicas, align 4
  %74 = tail call fastcc i32 @dissect_nodeid_list(ptr noundef %0, ptr noundef %1, ptr noundef %44, i16 noundef zeroext %71, i16 noundef zeroext %72, i32 noundef %73)
  %75 = add nuw nsw i32 %74, 12
  %76 = and i32 %75, 65535
  br label %dissect_storekindresponse.exit

dissect_storekindresponse.exit:                   ; preds = %38, %dissect_kindid.exit.i
  %.0.i = phi i32 [ %34, %38 ], [ %76, %dissect_kindid.exit.i ]
  %77 = icmp eq i32 %.0.i, 0
  %78 = add nuw i32 %.0.i, %.039
  %79 = add i32 %.038, 1
  br i1 %77, label %80, label %22

80:                                               ; preds = %dissect_storekindresponse.exit, %22
  tail call void (ptr, ptr, ...) @proto_item_append_text(ptr noundef %16, ptr noundef nonnull @.str.17, i32 noundef %.038)
  ret void
}